target datalayout = "e-m:e-p270:32:32-p271:32:32-p272:64:64-i64:64-i128:128-f80:128-n8:16:32:64-S128"
target triple = "x86_64-pc-linux-gnu"

%struct._priv_exr_context_t = type { i8, i8, i8, i8, i8, i8, i8, i8, %struct.exr_attr_string_t, %struct.exr_attr_string_t, ptr, ptr, ptr, ptr, ptr, ptr, ptr, ptr, i32, i32, i32, i32, i32, float, ptr, ptr, ptr, i64, ptr, ptr, i64, i32, i32, i32, i32, %struct._priv_exr_part_t, ptr, ptr, %struct.exr_attribute_list, %union.pthread_mutex_t, i8, i8, [2 x i8], i32 }
%struct.exr_attr_string_t = type { i32, i32, ptr }
%struct._priv_exr_part_t = type { i32, i32, %struct.exr_attribute_list, ptr, ptr, ptr, ptr, ptr, ptr, ptr, ptr, ptr, ptr, ptr, ptr, ptr, ptr, %struct.exr_attr_box2i_t, %struct.exr_attr_box2i_t, i32, i32, i32, float, i32, i32, ptr, ptr, ptr, ptr, i64, i16, i16, i32, i64, i64 }
%struct.exr_attr_box2i_t = type { %struct.exr_attr_v2i_t, %struct.exr_attr_v2i_t }
%struct.exr_attr_v2i_t = type { i32, i32 }
%struct.exr_attribute_list = type { i32, i32, ptr, ptr }
%union.pthread_mutex_t = type { %struct.__pthread_mutex_s }
%struct.__pthread_mutex_s = type { i32, i32, i32, i32, i32, i16, i16, %struct.__pthread_internal_list }
%struct.__pthread_internal_list = type { ptr, ptr }

@.str = private unnamed_addr constant [29 x i8] c"Part index (%d) out of range\00", align 1

; Function Attrs: inlinehint nounwind uwtable
define internal void @internal_exr_unlock(ptr noundef %0) #2 {
  %2 = alloca ptr, align 8
  %3 = alloca ptr, align 8
  store ptr %0, ptr %2, align 8, !tbaa !3
  call void @llvm.lifetime.start.p0(i64 8, ptr %3) #8
  %4 = load ptr, ptr %2, align 8, !tbaa !3
  %5 = ptrtoint ptr %4 to i64
  %6 = inttoptr i64 %5 to ptr
  store ptr %6, ptr %3, align 8, !tbaa !3
  %7 = load ptr, ptr %3, align 8, !tbaa !3
  %8 = getelementptr inbounds nuw %struct._priv_exr_context_t, ptr %7, i32 0, i32 39
  %9 = call i32 @pthread_mutex_unlock(ptr noundef %8) #8
  call void @llvm.lifetime.end.p0(i64 8, ptr %3) #8
  ret void
}

; Function Attrs: inlinehint nounwind uwtable
define internal void @internal_exr_lock(ptr noundef %0) #2 {
  %2 = alloca ptr, align 8
  %3 = alloca ptr, align 8
  store ptr %0, ptr %2, align 8, !tbaa !3
  call void @llvm.lifetime.start.p0(i64 8, ptr %3) #8
  %4 = load ptr, ptr %2, align 8, !tbaa !3
  %5 = ptrtoint ptr %4 to i64
  %6 = inttoptr i64 %5 to ptr
  store ptr %6, ptr %3, align 8, !tbaa !3
  %7 = load ptr, ptr %3, align 8, !tbaa !3
  %8 = getelementptr inbounds nuw %struct._priv_exr_context_t, ptr %7, i32 0, i32 39
  %9 = call i32 @pthread_mutex_lock(ptr noundef %8) #8
  call void @llvm.lifetime.end.p0(i64 8, ptr %3) #8
  ret void
}

; Function Attrs: nounwind uwtable
define i32 @exr_get_attribute_by_index(ptr noundef %0, i32 noundef %1, i32 noundef %2, i32 noundef %3, ptr noundef %4) #0 {
  %6 = alloca i32, align 4
  %7 = alloca ptr, align 8
  %8 = alloca i32, align 4
  %9 = alloca i32, align 4
  %10 = alloca i32, align 4
  %11 = alloca ptr, align 8
  %12 = alloca ptr, align 8
  %13 = alloca ptr, align 8
  %14 = alloca i32, align 4
  store ptr %0, ptr %7, align 8, !tbaa !3
  store i32 %1, ptr %8, align 4, !tbaa !8
  store i32 %2, ptr %9, align 4, !tbaa !8
  store i32 %3, ptr %10, align 4, !tbaa !8
  store ptr %4, ptr %11, align 8, !tbaa !32
  call void @llvm.lifetime.start.p0(i64 8, ptr %12) #8
  call void @llvm.lifetime.start.p0(i64 8, ptr %13) #8
  %15 = load ptr, ptr %7, align 8, !tbaa !3
  %16 = icmp ne ptr %15, null
  br i1 %16, label %18, label %17

17:                                               ; preds = %5
  store i32 2, ptr %6, align 4
  store i32 1, ptr %14, align 4
  br label %148

18:                                               ; preds = %5
  %19 = load ptr, ptr %7, align 8, !tbaa !3
  %20 = getelementptr inbounds nuw %struct._priv_exr_context_t, ptr %19, i32 0, i32 0
  %21 = load i8, ptr %20, align 8, !tbaa !12
  %22 = zext i8 %21 to i32
  %23 = icmp eq i32 %22, 1
  br i1 %23, label %24, label %26

24:                                               ; preds = %18
  %25 = load ptr, ptr %7, align 8, !tbaa !3
  call void @internal_exr_lock(ptr noundef %25)
  br label %26

26:                                               ; preds = %24, %18
  %27 = load i32, ptr %8, align 4, !tbaa !8
  %28 = icmp slt i32 %27, 0
  br i1 %28, label %35, label %29

29:                                               ; preds = %26
  %30 = load i32, ptr %8, align 4, !tbaa !8
  %31 = load ptr, ptr %7, align 8, !tbaa !3
  %32 = getelementptr inbounds nuw %struct._priv_exr_context_t, ptr %31, i32 0, i32 34
  %33 = load i32, ptr %32, align 4, !tbaa !26
  %34 = icmp sge i32 %30, %33
  br i1 %34, label %35, label %50

35:                                               ; preds = %29, %26
  %36 = load ptr, ptr %7, align 8, !tbaa !3
  %37 = getelementptr inbounds nuw %struct._priv_exr_context_t, ptr %36, i32 0, i32 0
  %38 = load i8, ptr %37, align 8, !tbaa !12
  %39 = zext i8 %38 to i32
  %40 = icmp eq i32 %39, 1
  br i1 %40, label %41, label %43

41:                                               ; preds = %35
  %42 = load ptr, ptr %7, align 8, !tbaa !3
  call void @internal_exr_unlock(ptr noundef %42)
  br label %43

43:                                               ; preds = %41, %35
  %44 = load ptr, ptr %7, align 8, !tbaa !3
  %45 = getelementptr inbounds nuw %struct._priv_exr_context_t, ptr %44, i32 0, i32 14
  %46 = load ptr, ptr %45, align 8, !tbaa !27
  %47 = load ptr, ptr %7, align 8, !tbaa !3
  %48 = load i32, ptr %8, align 4, !tbaa !8
  %49 = call i32 (ptr, i32, ptr, ...) %46(ptr noundef %47, i32 noundef 4, ptr noundef @.str, i32 noundef %48)
  store i32 %49, ptr %6, align 4
  store i32 1, ptr %14, align 4
  br label %148

50:                                               ; preds = %29
  %51 = load ptr, ptr %7, align 8, !tbaa !3
  %52 = getelementptr inbounds nuw %struct._priv_exr_context_t, ptr %51, i32 0, i32 37
  %53 = load ptr, ptr %52, align 8, !tbaa !28
  %54 = load i32, ptr %8, align 4, !tbaa !8
  %55 = sext i32 %54 to i64
  %56 = getelementptr inbounds ptr, ptr %53, i64 %55
  %57 = load ptr, ptr %56, align 8, !tbaa !29
  store ptr %57, ptr %13, align 8, !tbaa !29
  %58 = load ptr, ptr %11, align 8, !tbaa !32
  %59 = icmp ne ptr %58, null
  br i1 %59, label %75, label %60

60:                                               ; preds = %50
  %61 = load ptr, ptr %7, align 8, !tbaa !3
  %62 = getelementptr inbounds nuw %struct._priv_exr_context_t, ptr %61, i32 0, i32 0
  %63 = load i8, ptr %62, align 8, !tbaa !12
  %64 = zext i8 %63 to i32
  %65 = icmp eq i32 %64, 1
  br i1 %65, label %66, label %68

66:                                               ; preds = %60
  %67 = load ptr, ptr %7, align 8, !tbaa !3
  call void @internal_exr_unlock(ptr noundef %67)
  br label %69

68:                                               ; preds = %60
  br label %69

69:                                               ; preds = %68, %66
  %70 = load ptr, ptr %7, align 8, !tbaa !3
  %71 = getelementptr inbounds nuw %struct._priv_exr_context_t, ptr %70, i32 0, i32 12
  %72 = load ptr, ptr %71, align 8, !tbaa !31
  %73 = load ptr, ptr %7, align 8, !tbaa !3
  %74 = call i32 %72(ptr noundef %73, i32 noundef 3)
  store i32 %74, ptr %6, align 4
  store i32 1, ptr %14, align 4
  br label %148

75:                                               ; preds = %50
  %76 = load i32, ptr %10, align 4, !tbaa !8
  %77 = icmp slt i32 %76, 0
  br i1 %77, label %85, label %78

78:                                               ; preds = %75
  %79 = load i32, ptr %10, align 4, !tbaa !8
  %80 = load ptr, ptr %13, align 8, !tbaa !29
  %81 = getelementptr inbounds nuw %struct._priv_exr_part_t, ptr %80, i32 0, i32 2
  %82 = getelementptr inbounds nuw %struct.exr_attribute_list, ptr %81, i32 0, i32 0
  %83 = load i32, ptr %82, align 8, !tbaa !30
  %84 = icmp sge i32 %79, %83
  br i1 %84, label %85, label %100

85:                                               ; preds = %78, %75
  %86 = load ptr, ptr %7, align 8, !tbaa !3
  %87 = getelementptr inbounds nuw %struct._priv_exr_context_t, ptr %86, i32 0, i32 0
  %88 = load i8, ptr %87, align 8, !tbaa !12
  %89 = zext i8 %88 to i32
  %90 = icmp eq i32 %89, 1
  br i1 %90, label %91, label %93

91:                                               ; preds = %85
  %92 = load ptr, ptr %7, align 8, !tbaa !3
  call void @internal_exr_unlock(ptr noundef %92)
  br label %94

93:                                               ; preds = %85
  br label %94

94:                                               ; preds = %93, %91
  %95 = load ptr, ptr %7, align 8, !tbaa !3
  %96 = getelementptr inbounds nuw %struct._priv_exr_context_t, ptr %95, i32 0, i32 12
  %97 = load ptr, ptr %96, align 8, !tbaa !31
  %98 = load ptr, ptr %7, align 8, !tbaa !3
  %99 = call i32 %97(ptr noundef %98, i32 noundef 4)
  store i32 %99, ptr %6, align 4
  store i32 1, ptr %14, align 4
  br label %148

100:                                              ; preds = %78
  %101 = load i32, ptr %9, align 4, !tbaa !8
  %102 = icmp eq i32 %101, 1
  br i1 %102, label %103, label %108

103:                                              ; preds = %100
  %104 = load ptr, ptr %13, align 8, !tbaa !29
  %105 = getelementptr inbounds nuw %struct._priv_exr_part_t, ptr %104, i32 0, i32 2
  %106 = getelementptr inbounds nuw %struct.exr_attribute_list, ptr %105, i32 0, i32 3
  %107 = load ptr, ptr %106, align 8, !tbaa !33
  store ptr %107, ptr %12, align 8, !tbaa !32
  br label %132

108:                                              ; preds = %100
  %109 = load i32, ptr %9, align 4, !tbaa !8
  %110 = icmp eq i32 %109, 0
  br i1 %110, label %111, label %116

111:                                              ; preds = %108
  %112 = load ptr, ptr %13, align 8, !tbaa !29
  %113 = getelementptr inbounds nuw %struct._priv_exr_part_t, ptr %112, i32 0, i32 2
  %114 = getelementptr inbounds nuw %struct.exr_attribute_list, ptr %113, i32 0, i32 2
  %115 = load ptr, ptr %114, align 8, !tbaa !34
  store ptr %115, ptr %12, align 8, !tbaa !32
  br label %131

116:                                              ; preds = %108
  %117 = load ptr, ptr %7, align 8, !tbaa !3
  %118 = getelementptr inbounds nuw %struct._priv_exr_context_t, ptr %117, i32 0, i32 0
  %119 = load i8, ptr %118, align 8, !tbaa !12
  %120 = zext i8 %119 to i32
  %121 = icmp eq i32 %120, 1
  br i1 %121, label %122, label %124

122:                                              ; preds = %116
  %123 = load ptr, ptr %7, align 8, !tbaa !3
  call void @internal_exr_unlock(ptr noundef %123)
  br label %125

124:                                              ; preds = %116
  br label %125

125:                                              ; preds = %124, %122
  %126 = load ptr, ptr %7, align 8, !tbaa !3
  %127 = getelementptr inbounds nuw %struct._priv_exr_context_t, ptr %126, i32 0, i32 12
  %128 = load ptr, ptr %127, align 8, !tbaa !31
  %129 = load ptr, ptr %7, align 8, !tbaa !3
  %130 = call i32 %128(ptr noundef %129, i32 noundef 3)
  store i32 %130, ptr %6, align 4
  store i32 1, ptr %14, align 4
  br label %148

131:                                              ; preds = %111
  br label %132

132:                                              ; preds = %131, %103
  %133 = load ptr, ptr %12, align 8, !tbaa !32
  %134 = load i32, ptr %10, align 4, !tbaa !8
  %135 = sext i32 %134 to i64
  %136 = getelementptr inbounds ptr, ptr %133, i64 %135
  %137 = load ptr, ptr %136, align 8, !tbaa !35
  %138 = load ptr, ptr %11, align 8, !tbaa !32
  store ptr %137, ptr %138, align 8, !tbaa !35
  %139 = load ptr, ptr %7, align 8, !tbaa !3
  %140 = getelementptr inbounds nuw %struct._priv_exr_context_t, ptr %139, i32 0, i32 0
  %141 = load i8, ptr %140, align 8, !tbaa !12
  %142 = zext i8 %141 to i32
  %143 = icmp eq i32 %142, 1
  br i1 %143, label %144, label %146

144:                                              ; preds = %132
  %145 = load ptr, ptr %7, align 8, !tbaa !3
  call void @internal_exr_unlock(ptr noundef %145)
  br label %147

146:                                              ; preds = %132
  br label %147

147:                                              ; preds = %146, %144
  store i32 0, ptr %6, align 4
  store i32 1, ptr %14, align 4
  br label %148

148:                                              ; preds = %147, %125, %94, %69, %43, %17
  call void @llvm.lifetime.end.p0(i64 8, ptr %13) #8
  call void @llvm.lifetime.end.p0(i64 8, ptr %12) #8
  %149 = load i32, ptr %6, align 4
  ret i32 %149
}