; Function Attrs: nounwind uwtable
define i32 @exr_get_attribute_by_index(ptr noundef %0, i32 noundef %1, i32 noundef %2, i32 noundef %3, ptr noundef writeonly %4) local_unnamed_addr #0 {
  %.not = icmp eq ptr %0, null
  br i1 %.not, label %80, label %6

6:                                                ; preds = %5
  %7 = load i8, ptr %0, align 8, !tbaa !3
  %8 = icmp eq i8 %7, 1
  br i1 %8, label %9, label %12

9:                                                ; preds = %6
  %10 = getelementptr inbounds nuw i8, ptr %0, i64 504
  %11 = tail call i32 @pthread_mutex_lock(ptr noundef nonnull %10) #6
  br label %12

12:                                               ; preds = %9, %6
  %13 = icmp slt i32 %1, 0
  br i1 %13, label %17, label %14

14:                                               ; preds = %12
  %15 = getelementptr inbounds nuw i8, ptr %0, i64 196
  %16 = load i32, ptr %15, align 4, !tbaa !22
  %.not44 = icmp slt i32 %1, %16
  br i1 %.not44, label %27, label %17

17:                                               ; preds = %14, %12
  %18 = load i8, ptr %0, align 8, !tbaa !3
  %19 = icmp eq i8 %18, 1
  br i1 %19, label %20, label %23

20:                                               ; preds = %17
  %21 = getelementptr inbounds nuw i8, ptr %0, i64 504
  %22 = tail call i32 @pthread_mutex_unlock(ptr noundef nonnull %21) #6
  br label %23

23:                                               ; preds = %20, %17
  %24 = getelementptr inbounds nuw i8, ptr %0, i64 72
  %25 = load ptr, ptr %24, align 8, !tbaa !23
  %26 = tail call i32 (ptr, i32, ptr, ...) %25(ptr noundef nonnull %0, i32 noundef 4, ptr noundef nonnull @.str, i32 noundef %1) #6
  br label %80

27:                                               ; preds = %14
  %28 = getelementptr inbounds nuw i8, ptr %0, i64 472
  %29 = load ptr, ptr %28, align 8, !tbaa !24
  %30 = zext nneg i32 %1 to i64
  %31 = getelementptr inbounds nuw ptr, ptr %29, i64 %30
  %32 = load ptr, ptr %31, align 8, !tbaa !25
  %.not45 = icmp eq ptr %4, null
  br i1 %.not45, label %33, label %43

33:                                               ; preds = %27
  %34 = load i8, ptr %0, align 8, !tbaa !3
  %35 = icmp eq i8 %34, 1
  br i1 %35, label %36, label %39

36:                                               ; preds = %33
  %37 = getelementptr inbounds nuw i8, ptr %0, i64 504
  %38 = tail call i32 @pthread_mutex_unlock(ptr noundef nonnull %37) #6
  br label %39

39:                                               ; preds = %33, %36
  %40 = getelementptr inbounds nuw i8, ptr %0, i64 56
  %41 = load ptr, ptr %40, align 8, !tbaa !27
  %42 = tail call i32 %41(ptr noundef nonnull %0, i32 noundef 3) #6
  br label %80

43:                                               ; preds = %27
  %44 = icmp slt i32 %3, 0
  br i1 %44, label %48, label %45

45:                                               ; preds = %43
  %46 = getelementptr inbounds nuw i8, ptr %32, i64 8
  %47 = load i32, ptr %46, align 8, !tbaa !26
  %.not46 = icmp slt i32 %3, %47
  br i1 %.not46, label %58, label %48

48:                                               ; preds = %45, %43
  %49 = load i8, ptr %0, align 8, !tbaa !3
  %50 = icmp eq i8 %49, 1
  br i1 %50, label %51, label %54

51:                                               ; preds = %48
  %52 = getelementptr inbounds nuw i8, ptr %0, i64 504
  %53 = tail call i32 @pthread_mutex_unlock(ptr noundef nonnull %52) #6
  br label %54

54:                                               ; preds = %48, %51
  %55 = getelementptr inbounds nuw i8, ptr %0, i64 56
  %56 = load ptr, ptr %55, align 8, !tbaa !27
  %57 = tail call i32 %56(ptr noundef nonnull %0, i32 noundef 4) #6
  br label %80

58:                                               ; preds = %45
  switch i32 %2, label %60 [
    i32 1, label %70
    i32 0, label %59
  ]

59:                                               ; preds = %58
  br label %70

60:                                               ; preds = %58
  %61 = load i8, ptr %0, align 8, !tbaa !3
  %62 = icmp eq i8 %61, 1
  br i1 %62, label %63, label %66

63:                                               ; preds = %60
  %64 = getelementptr inbounds nuw i8, ptr %0, i64 504
  %65 = tail call i32 @pthread_mutex_unlock(ptr noundef nonnull %64) #6
  br label %66

66:                                               ; preds = %60, %63
  %67 = getelementptr inbounds nuw i8, ptr %0, i64 56
  %68 = load ptr, ptr %67, align 8, !tbaa !27
  %69 = tail call i32 %68(ptr noundef nonnull %0, i32 noundef 3) #6
  br label %80

70:                                               ; preds = %58, %59
  %.sink = phi i64 [ 16, %59 ], [ 24, %58 ]
  %71 = getelementptr inbounds nuw i8, ptr %32, i64 %.sink
  %.038 = load ptr, ptr %71, align 8, !tbaa !29
  %72 = zext nneg i32 %3 to i64
  %73 = getelementptr inbounds nuw ptr, ptr %.038, i64 %72
  %74 = load ptr, ptr %73, align 8, !tbaa !30
  store ptr %74, ptr %4, align 8, !tbaa !30
  %75 = load i8, ptr %0, align 8, !tbaa !3
  %76 = icmp eq i8 %75, 1
  br i1 %76, label %77, label %80

77:                                               ; preds = %70
  %78 = getelementptr inbounds nuw i8, ptr %0, i64 504
  %79 = tail call i32 @pthread_mutex_unlock(ptr noundef nonnull %78) #6
  br label %80

80:                                               ; preds = %77, %70, %5, %66, %54, %39, %23
  %.0 = phi i32 [ %26, %23 ], [ %57, %54 ], [ %69, %66 ], [ %42, %39 ], [ 2, %5 ], [ 0, %70 ], [ 0, %77 ]
  ret i32 %.0
}